; Function Attrs: mustprogress uwtable
define void @_ZN4cvc56parser3CmdC2ERKS1_(ptr noundef nonnull writeonly align 8 captures(none) dereferenceable(16) initializes((0, 16)) %0, ptr noundef nonnull readonly align 8 captures(none) dereferenceable(16) %1) unnamed_addr #3 align 2 {
  store ptr getelementptr inbounds nuw inrange(-16, 56) (i8, ptr @_ZTVN4cvc56parser3CmdE, i64 16), ptr %0, align 8, !tbaa !6
  %3 = getelementptr inbounds nuw i8, ptr %1, i64 8
  %4 = load ptr, ptr %3, align 8, !tbaa !48
  %5 = icmp eq ptr %4, null
  br i1 %5, label %11, label %6

6:                                                ; preds = %2
  %7 = load ptr, ptr %4, align 8, !tbaa !6
  %8 = getelementptr inbounds nuw i8, ptr %7, i64 24
  %9 = load ptr, ptr %8, align 8
  %10 = tail call noundef nonnull align 8 dereferenceable(8) ptr %9(ptr noundef nonnull align 8 dereferenceable(8) %4)
  br label %11

11:                                               ; preds = %2, %6
  %12 = phi ptr [ %10, %6 ], [ null, %2 ]
  %13 = getelementptr inbounds nuw i8, ptr %0, i64 8
  store ptr %12, ptr %13, align 8, !tbaa !48
  ret void
}